; Listing generated by Microsoft (R) Optimizing Compiler Version 19.11.25508.2 

	TITLE	c:\users\theclashingfritz\source\repos\inifileparser\zlib\compress.c
	.686P
	.XMM
	include listing.inc
	.model	flat

INCLUDELIB OLDNAMES

PUBLIC	??_C@_06CJNJFBNP@1?42?411?$AA@			; `string'
CONST	ENDS
;	COMDAT ??_C@_06CJNJFBNP@1?42?411?$AA@
CONST	SEGMENT
??_C@_06CJNJFBNP@1?42?411?$AA@ DB '1.2.11', 00H		; `string'
CONST	ENDS
PUBLIC	_compressBound
PUBLIC	_compress
PUBLIC	_compress2
; Function compile flags: /Ogtp
; File c:\users\theclashingfritz\source\repos\inifileparser\zlib\compress.c
;	COMDAT _compress2
_TEXT	SEGMENT
_stream$ = -56						; size = 56
_dest$ = 8						; size = 4
_destLen$ = 12						; size = 4
_source$ = 16						; size = 4
_sourceLen$ = 20					; size = 4
_level$ = 24						; size = 4
_compress2 PROC						; COMDAT

; 28   : {

  00000	55		 push	 ebp
  00001	8b ec		 mov	 ebp, esp
  00003	83 e4 f8	 and	 esp, -8			; fffffff8H
  00006	83 ec 3c	 sub	 esp, 60			; 0000003cH

; 29   :     z_stream stream;
; 30   :     int err;
; 31   :     const uInt max = (uInt)-1;
; 32   :     uLong left;
; 33   : 
; 34   :     left = *destLen;

  00009	8b 45 0c	 mov	 eax, DWORD PTR _destLen$[ebp]
  0000c	53		 push	 ebx
  0000d	56		 push	 esi
  0000e	57		 push	 edi
  0000f	8b 38		 mov	 edi, DWORD PTR [eax]

; 35   :     *destLen = 0;
; 36   : 
; 37   :     stream.zalloc = (alloc_func)0;
; 38   :     stream.zfree = (free_func)0;
; 39   :     stream.opaque = (voidpf)0;
; 40   : 
; 41   :     err = deflateInit(&stream, level);

  00011	6a 38		 push	 56			; 00000038H
  00013	68 00 00 00 00	 push	 OFFSET ??_C@_06CJNJFBNP@1?42?411?$AA@
  00018	ff 75 18	 push	 DWORD PTR _level$[ebp]
  0001b	c7 00 00 00 00
	00		 mov	 DWORD PTR [eax], 0
  00021	8d 44 24 1c	 lea	 eax, DWORD PTR _stream$[esp+84]
  00025	50		 push	 eax
  00026	c7 44 24 40 00
	00 00 00	 mov	 DWORD PTR _stream$[esp+120], 0
  0002e	c7 44 24 44 00
	00 00 00	 mov	 DWORD PTR _stream$[esp+124], 0
  00036	c7 44 24 48 00
	00 00 00	 mov	 DWORD PTR _stream$[esp+128], 0
  0003e	e8 00 00 00 00	 call	 _deflateInit_
  00043	83 c4 10	 add	 esp, 16			; 00000010H

; 42   :     if (err != Z_OK) return err;

  00046	85 c0		 test	 eax, eax
  00048	0f 85 8d 00 00
	00		 jne	 $LN1@compress2

; 43   : 
; 44   :     stream.next_out = dest;

  0004e	8b 45 08	 mov	 eax, DWORD PTR _dest$[ebp]

; 45   :     stream.avail_out = 0;

  00051	33 c9		 xor	 ecx, ecx

; 46   :     stream.next_in = (z_const Bytef *)source;
; 47   :     stream.avail_in = 0;

  00053	8b 75 14	 mov	 esi, DWORD PTR _sourceLen$[ebp]
  00056	33 d2		 xor	 edx, edx
  00058	89 44 24 1c	 mov	 DWORD PTR _stream$[esp+84], eax
  0005c	8b 45 10	 mov	 eax, DWORD PTR _source$[ebp]
  0005f	89 4c 24 20	 mov	 DWORD PTR _stream$[esp+88], ecx
  00063	89 44 24 10	 mov	 DWORD PTR _stream$[esp+72], eax
  00067	89 54 24 14	 mov	 DWORD PTR _stream$[esp+76], edx
$LN16@compress2:
  0006b	83 cb ff	 or	 ebx, -1

; 48   : 
; 49   :     do {
; 50   :         if (stream.avail_out == 0) {

  0006e	85 c9		 test	 ecx, ecx
  00070	75 0d		 jne	 SHORT $LN6@compress2

; 51   :             stream.avail_out = left > (uLong)max ? max : (uInt)left;

  00072	3b fb		 cmp	 edi, ebx
  00074	8b c7		 mov	 eax, edi
  00076	0f 47 c3	 cmova	 eax, ebx
  00079	89 44 24 20	 mov	 DWORD PTR _stream$[esp+88], eax

; 52   :             left -= stream.avail_out;

  0007d	2b f8		 sub	 edi, eax
$LN6@compress2:

; 53   :         }
; 54   :         if (stream.avail_in == 0) {

  0007f	85 d2		 test	 edx, edx
  00081	75 0e		 jne	 SHORT $LN7@compress2

; 55   :             stream.avail_in = sourceLen > (uLong)max ? max : (uInt)sourceLen;

  00083	83 fe ff	 cmp	 esi, -1
  00086	8b c6		 mov	 eax, esi
  00088	0f 47 c3	 cmova	 eax, ebx
  0008b	89 44 24 14	 mov	 DWORD PTR _stream$[esp+76], eax

; 56   :             sourceLen -= stream.avail_in;

  0008f	2b f0		 sub	 esi, eax
$LN7@compress2:

; 57   :         }
; 58   :         err = deflate(&stream, sourceLen ? Z_NO_FLUSH : Z_FINISH);

  00091	33 c9		 xor	 ecx, ecx
  00093	b8 04 00 00 00	 mov	 eax, 4
  00098	85 f6		 test	 esi, esi
  0009a	0f 45 c1	 cmovne	 eax, ecx
  0009d	50		 push	 eax
  0009e	8d 44 24 14	 lea	 eax, DWORD PTR _stream$[esp+76]
  000a2	50		 push	 eax
  000a3	e8 00 00 00 00	 call	 _deflate
  000a8	8b d8		 mov	 ebx, eax
  000aa	83 c4 08	 add	 esp, 8

; 59   :     } while (err == Z_OK);

  000ad	85 db		 test	 ebx, ebx
  000af	75 0a		 jne	 SHORT $LN15@compress2
  000b1	8b 4c 24 20	 mov	 ecx, DWORD PTR _stream$[esp+88]
  000b5	8b 54 24 14	 mov	 edx, DWORD PTR _stream$[esp+76]
  000b9	eb b0		 jmp	 SHORT $LN16@compress2
$LN15@compress2:

; 60   : 
; 61   :     *destLen = stream.total_out;

  000bb	8b 4d 0c	 mov	 ecx, DWORD PTR _destLen$[ebp]
  000be	8b 44 24 24	 mov	 eax, DWORD PTR _stream$[esp+92]
  000c2	89 01		 mov	 DWORD PTR [ecx], eax

; 62   :     deflateEnd(&stream);

  000c4	8d 44 24 10	 lea	 eax, DWORD PTR _stream$[esp+72]
  000c8	50		 push	 eax
  000c9	e8 00 00 00 00	 call	 _deflateEnd

; 63   :     return err == Z_STREAM_END ? Z_OK : err;

  000ce	33 c0		 xor	 eax, eax
  000d0	83 c4 04	 add	 esp, 4
  000d3	83 fb 01	 cmp	 ebx, 1
  000d6	0f 44 d8	 cmove	 ebx, eax
  000d9	8b c3		 mov	 eax, ebx
$LN1@compress2:

; 64   : }

  000db	5f		 pop	 edi
  000dc	5e		 pop	 esi
  000dd	5b		 pop	 ebx
  000de	8b e5		 mov	 esp, ebp
  000e0	5d		 pop	 ebp
  000e1	c3		 ret	 0
_compress2 ENDP
_TEXT	ENDS
; Function compile flags: /Ogtp
; File c:\users\theclashingfritz\source\repos\inifileparser\zlib\compress.c
;	COMDAT _compress
_TEXT	SEGMENT
_dest$ = 8						; size = 4
_destLen$ = 12						; size = 4
_source$ = 16						; size = 4
_sourceLen$ = 20					; size = 4
_compress PROC						; COMDAT

; 73   : {

  00000	55		 push	 ebp
  00001	8b ec		 mov	 ebp, esp

; 74   :     return compress2(dest, destLen, source, sourceLen, Z_DEFAULT_COMPRESSION);

  00003	6a ff		 push	 -1
  00005	ff 75 14	 push	 DWORD PTR _sourceLen$[ebp]
  00008	ff 75 10	 push	 DWORD PTR _source$[ebp]
  0000b	ff 75 0c	 push	 DWORD PTR _destLen$[ebp]
  0000e	ff 75 08	 push	 DWORD PTR _dest$[ebp]
  00011	e8 00 00 00 00	 call	 _compress2
  00016	83 c4 14	 add	 esp, 20			; 00000014H

; 75   : }

  00019	5d		 pop	 ebp
  0001a	c3		 ret	 0
_compress ENDP
_TEXT	ENDS
; Function compile flags: /Ogtp
; File c:\users\theclashingfritz\source\repos\inifileparser\zlib\compress.c
;	COMDAT _compressBound
_TEXT	SEGMENT
_sourceLen$ = 8						; size = 4
_compressBound PROC					; COMDAT

; 83   : {

  00000	55		 push	 ebp
  00001	8b ec		 mov	 ebp, esp

; 84   :     return sourceLen + (sourceLen >> 12) + (sourceLen >> 14) +

  00003	8b 55 08	 mov	 edx, DWORD PTR _sourceLen$[ebp]
  00006	8b c2		 mov	 eax, edx
  00008	c1 e8 0e	 shr	 eax, 14			; 0000000eH
  0000b	8b ca		 mov	 ecx, edx
  0000d	03 c2		 add	 eax, edx
  0000f	c1 e9 19	 shr	 ecx, 25			; 00000019H
  00012	c1 ea 0c	 shr	 edx, 12			; 0000000cH
  00015	03 c1		 add	 eax, ecx
  00017	83 c2 0d	 add	 edx, 13			; 0000000dH
  0001a	03 c2		 add	 eax, edx

; 85   :            (sourceLen >> 25) + 13;
; 86   : }

  0001c	5d		 pop	 ebp
  0001d	c3		 ret	 0
_compressBound ENDP
_TEXT	ENDS
END
