; Listing generated by Microsoft (R) Optimizing Compiler Version 16.00.30319.01 

	TITLE	C:\Users\theclashingfritz\source\repos\INIFileParser\zlib\gzclose.c
	.686P
	.XMM
	include listing.inc
	.model	flat

INCLUDELIB OLDNAMES

PUBLIC	_gzclose
; Function compile flags: /Ogtp
; File c:\users\theclashingfritz\source\repos\inifileparser\zlib\gzclose.c
;	COMDAT _gzclose
_TEXT	SEGMENT
_file$ = 8						; size = 4
_gzclose PROC						; COMDAT

; 13   : {

  00000	55		 push	 ebp
  00001	8b ec		 mov	 ebp, esp

; 14   : #ifndef NO_GZCOMPRESS
; 15   :     gz_statep state;
; 16   : 
; 17   :     if (file == NULL)

  00003	8b 45 08	 mov	 eax, DWORD PTR _file$[ebp]
  00006	85 c0		 test	 eax, eax
  00008	75 07		 jne	 SHORT $LN1@gzclose

; 18   :         return Z_STREAM_ERROR;

  0000a	b8 fe ff ff ff	 mov	 eax, -2			; fffffffeH

; 22   : #else
; 23   :     return gzclose_r(file);
; 24   : #endif
; 25   : }

  0000f	5d		 pop	 ebp
  00010	c3		 ret	 0
$LN1@gzclose:

; 19   :     state = (gz_statep)file;
; 20   : 
; 21   :     return state->mode == GZ_READ ? gzclose_r(file) : gzclose_w(file);

  00011	81 78 10 4f 1c
	00 00		 cmp	 DWORD PTR [eax+16], 7247 ; 00001c4fH
  00018	50		 push	 eax
  00019	75 0a		 jne	 SHORT $LN4@gzclose
  0001b	e8 00 00 00 00	 call	 _gzclose_r
  00020	83 c4 04	 add	 esp, 4

; 22   : #else
; 23   :     return gzclose_r(file);
; 24   : #endif
; 25   : }

  00023	5d		 pop	 ebp
  00024	c3		 ret	 0
$LN4@gzclose:

; 19   :     state = (gz_statep)file;
; 20   : 
; 21   :     return state->mode == GZ_READ ? gzclose_r(file) : gzclose_w(file);

  00025	e8 00 00 00 00	 call	 _gzclose_w
  0002a	83 c4 04	 add	 esp, 4

; 22   : #else
; 23   :     return gzclose_r(file);
; 24   : #endif
; 25   : }

  0002d	5d		 pop	 ebp
  0002e	c3		 ret	 0
_gzclose ENDP
END
