; Listing generated by Microsoft (R) Optimizing Compiler Version 16.00.30319.01 

	TITLE	C:\Users\theclashingfritz\source\repos\INIFileParser\zlib\gzlib.c
	.686P
	.XMM
	include listing.inc
	.model	flat

INCLUDELIB OLDNAMES

PUBLIC	??_C@_02DKCKIIND@?$CFs?$AA@			; `string'
PUBLIC	??_C@_07EBNKNFJN@?$DMfd?3?$CFd?$DO?$AA@		; `string'
PUBLIC	??_C@_0O@BNNCBLEN@out?5of?5memory?$AA@		; `string'
PUBLIC	??_C@_00CNPNBAHC@?$AA@				; `string'
PUBLIC	??_C@_02LMMGGCAJ@?3?5?$AA@			; `string'
PUBLIC	??_C@_06DIJPEION@?$CFs?$CFs?$CFs?$AA@		; `string'
EXTRN	_wcstombs:PROC
EXTRN	__wopen:PROC
EXTRN	_open:PROC
EXTRN	__lseeki64:PROC
EXTRN	__snprintf:PROC
EXTRN	_free:PROC
EXTRN	_malloc:PROC
;	COMDAT ??_C@_06DIJPEION@?$CFs?$CFs?$CFs?$AA@
CONST	SEGMENT
??_C@_06DIJPEION@?$CFs?$CFs?$CFs?$AA@ DB '%s%s%s', 00H	; `string'
CONST	ENDS
;	COMDAT ??_C@_02LMMGGCAJ@?3?5?$AA@
CONST	SEGMENT
??_C@_02LMMGGCAJ@?3?5?$AA@ DB ': ', 00H			; `string'
CONST	ENDS
;	COMDAT ??_C@_00CNPNBAHC@?$AA@
CONST	SEGMENT
??_C@_00CNPNBAHC@?$AA@ DB 00H				; `string'
CONST	ENDS
;	COMDAT ??_C@_0O@BNNCBLEN@out?5of?5memory?$AA@
CONST	SEGMENT
??_C@_0O@BNNCBLEN@out?5of?5memory?$AA@ DB 'out of memory', 00H ; `string'
CONST	ENDS
;	COMDAT ??_C@_07EBNKNFJN@?$DMfd?3?$CFd?$DO?$AA@
CONST	SEGMENT
??_C@_07EBNKNFJN@?$DMfd?3?$CFd?$DO?$AA@ DB '<fd:%d>', 00H ; `string'
CONST	ENDS
;	COMDAT ??_C@_02DKCKIIND@?$CFs?$AA@
CONST	SEGMENT
??_C@_02DKCKIIND@?$CFs?$AA@ DB '%s', 00H		; `string'
PUBLIC	_gz_error
; Function compile flags: /Ogtp
; File c:\users\theclashingfritz\source\repos\inifileparser\zlib\gzlib.c
;	COMDAT _gz_error
_TEXT	SEGMENT
tv175 = -4						; size = 4
_gz_error PROC						; COMDAT
; _state$ = ecx
; _err$ = eax
; _msg$ = ebx

; 583  : {

  00000	55		 push	 ebp
  00001	8b ec		 mov	 ebp, esp
  00003	51		 push	 ecx
  00004	56		 push	 esi
  00005	57		 push	 edi
  00006	8b f1		 mov	 esi, ecx
  00008	8b f8		 mov	 edi, eax

; 584  :     /* free previously allocated message and clear */
; 585  :     if (state->msg != NULL) {

  0000a	8b 46 60	 mov	 eax, DWORD PTR [esi+96]
  0000d	85 c0		 test	 eax, eax
  0000f	74 16		 je	 SHORT $LN13@gz_error

; 586  :         if (state->err != Z_MEM_ERROR)

  00011	83 7e 5c fc	 cmp	 DWORD PTR [esi+92], -4	; fffffffcH
  00015	74 09		 je	 SHORT $LN5@gz_error

; 587  :             free(state->msg);

  00017	50		 push	 eax
  00018	e8 00 00 00 00	 call	 _free
  0001d	83 c4 04	 add	 esp, 4
$LN5@gz_error:

; 588  :         state->msg = NULL;

  00020	c7 46 60 00 00
	00 00		 mov	 DWORD PTR [esi+96], 0
$LN13@gz_error:

; 589  :     }
; 590  : 
; 591  :     /* if fatal, set state->x.have to 0 so that the gzgetc() macro fails */
; 592  :     if (err != Z_OK && err != Z_BUF_ERROR)

  00027	85 ff		 test	 edi, edi
  00029	74 0b		 je	 SHORT $LN4@gz_error
  0002b	83 ff fb	 cmp	 edi, -5			; fffffffbH
  0002e	74 06		 je	 SHORT $LN4@gz_error

; 593  :         state->x.have = 0;

  00030	c7 06 00 00 00
	00		 mov	 DWORD PTR [esi], 0
$LN4@gz_error:

; 594  : 
; 595  :     /* set error code, and if no message, then done */
; 596  :     state->err = err;

  00036	89 7e 5c	 mov	 DWORD PTR [esi+92], edi

; 597  :     if (msg == NULL)

  00039	85 db		 test	 ebx, ebx
  0003b	0f 84 88 00 00
	00		 je	 $LN7@gz_error

; 598  :         return;
; 599  : 
; 600  :     /* for an out of memory error, return literal string when requested */
; 601  :     if (err == Z_MEM_ERROR)

  00041	83 ff fc	 cmp	 edi, -4			; fffffffcH
  00044	0f 84 7f 00 00
	00		 je	 $LN7@gz_error

; 602  :         return;
; 603  : 
; 604  :     /* construct error message with path */
; 605  :     if ((state->msg = (char *)malloc(strlen(state->path) + strlen(msg) + 3)) ==
; 606  :             NULL) {

  0004a	8b 46 18	 mov	 eax, DWORD PTR [esi+24]
  0004d	89 45 fc	 mov	 DWORD PTR tv175[ebp], eax
  00050	8d 50 01	 lea	 edx, DWORD PTR [eax+1]
$LL9@gz_error:
  00053	8a 08		 mov	 cl, BYTE PTR [eax]
  00055	40		 inc	 eax
  00056	84 c9		 test	 cl, cl
  00058	75 f9		 jne	 SHORT $LL9@gz_error
  0005a	2b c2		 sub	 eax, edx
  0005c	8b d0		 mov	 edx, eax
  0005e	8b c3		 mov	 eax, ebx
  00060	8d 78 01	 lea	 edi, DWORD PTR [eax+1]
$LL10@gz_error:
  00063	8a 08		 mov	 cl, BYTE PTR [eax]
  00065	40		 inc	 eax
  00066	84 c9		 test	 cl, cl
  00068	75 f9		 jne	 SHORT $LL10@gz_error
  0006a	2b c7		 sub	 eax, edi
  0006c	8d 44 10 03	 lea	 eax, DWORD PTR [eax+edx+3]
  00070	50		 push	 eax
  00071	e8 00 00 00 00	 call	 _malloc
  00076	83 c4 04	 add	 esp, 4
  00079	89 46 60	 mov	 DWORD PTR [esi+96], eax
  0007c	85 c0		 test	 eax, eax
  0007e	75 0d		 jne	 SHORT $LN1@gz_error

; 607  :         state->err = Z_MEM_ERROR;

  00080	5f		 pop	 edi
  00081	c7 46 5c fc ff
	ff ff		 mov	 DWORD PTR [esi+92], -4	; fffffffcH
  00088	5e		 pop	 esi

; 613  : #else
; 614  :     strcpy(state->msg, state->path);
; 615  :     strcat(state->msg, ": ");
; 616  :     strcat(state->msg, msg);
; 617  : #endif
; 618  : }

  00089	8b e5		 mov	 esp, ebp
  0008b	5d		 pop	 ebp
  0008c	c3		 ret	 0
$LN1@gz_error:

; 608  :         return;
; 609  :     }
; 610  : #if !defined(NO_snprintf) && !defined(NO_vsnprintf)
; 611  :     (void)snprintf(state->msg, strlen(state->path) + strlen(msg) + 3,
; 612  :                    "%s%s%s", state->path, ": ", msg);

  0008d	8b 4d fc	 mov	 ecx, DWORD PTR tv175[ebp]
  00090	8d 71 01	 lea	 esi, DWORD PTR [ecx+1]
$LL11@gz_error:
  00093	8a 11		 mov	 dl, BYTE PTR [ecx]
  00095	41		 inc	 ecx
  00096	84 d2		 test	 dl, dl
  00098	75 f9		 jne	 SHORT $LL11@gz_error
  0009a	2b ce		 sub	 ecx, esi
  0009c	8b f1		 mov	 esi, ecx
  0009e	8b cb		 mov	 ecx, ebx
  000a0	8d 79 01	 lea	 edi, DWORD PTR [ecx+1]
$LL12@gz_error:
  000a3	8a 11		 mov	 dl, BYTE PTR [ecx]
  000a5	41		 inc	 ecx
  000a6	84 d2		 test	 dl, dl
  000a8	75 f9		 jne	 SHORT $LL12@gz_error
  000aa	8b 55 fc	 mov	 edx, DWORD PTR tv175[ebp]
  000ad	53		 push	 ebx
  000ae	68 00 00 00 00	 push	 OFFSET ??_C@_02LMMGGCAJ@?3?5?$AA@
  000b3	52		 push	 edx
  000b4	2b cf		 sub	 ecx, edi
  000b6	68 00 00 00 00	 push	 OFFSET ??_C@_06DIJPEION@?$CFs?$CFs?$CFs?$AA@
  000bb	8d 4c 31 03	 lea	 ecx, DWORD PTR [ecx+esi+3]
  000bf	51		 push	 ecx
  000c0	50		 push	 eax
  000c1	e8 00 00 00 00	 call	 __snprintf
  000c6	83 c4 18	 add	 esp, 24			; 00000018H
$LN7@gz_error:
  000c9	5f		 pop	 edi
  000ca	5e		 pop	 esi

; 613  : #else
; 614  :     strcpy(state->msg, state->path);
; 615  :     strcat(state->msg, ": ");
; 616  :     strcat(state->msg, msg);
; 617  : #endif
; 618  : }

  000cb	8b e5		 mov	 esp, ebp
  000cd	5d		 pop	 ebp
  000ce	c3		 ret	 0
_gz_error ENDP
_TEXT	ENDS
PUBLIC	_gzclearerr
; Function compile flags: /Ogtp
;	COMDAT _gzclearerr
_TEXT	SEGMENT
_file$ = 8						; size = 4
_gzclearerr PROC					; COMDAT

; 555  : {

  00000	55		 push	 ebp
  00001	8b ec		 mov	 ebp, esp

; 556  :     gz_statep state;
; 557  : 
; 558  :     /* get internal structure and check integrity */
; 559  :     if (file == NULL)

  00003	8b 4d 08	 mov	 ecx, DWORD PTR _file$[ebp]
  00006	33 d2		 xor	 edx, edx
  00008	3b ca		 cmp	 ecx, edx
  0000a	74 29		 je	 SHORT $LN4@gzclearerr

; 560  :         return;
; 561  :     state = (gz_statep)file;
; 562  :     if (state->mode != GZ_READ && state->mode != GZ_WRITE)

  0000c	8b 41 10	 mov	 eax, DWORD PTR [ecx+16]
  0000f	3d 4f 1c 00 00	 cmp	 eax, 7247		; 00001c4fH
  00014	74 0e		 je	 SHORT $LN7@gzclearerr
  00016	3d b1 79 00 00	 cmp	 eax, 31153		; 000079b1H
  0001b	75 18		 jne	 SHORT $LN4@gzclearerr

; 563  :         return;
; 564  : 
; 565  :     /* clear error and end-of-file */
; 566  :     if (state->mode == GZ_READ) {

  0001d	3d 4f 1c 00 00	 cmp	 eax, 7247		; 00001c4fH
  00022	75 06		 jne	 SHORT $LN1@gzclearerr
$LN7@gzclearerr:

; 567  :         state->eof = 0;

  00024	89 51 40	 mov	 DWORD PTR [ecx+64], edx

; 568  :         state->past = 0;

  00027	89 51 44	 mov	 DWORD PTR [ecx+68], edx
$LN1@gzclearerr:

; 569  :     }
; 570  :     gz_error(state, Z_OK, NULL);

  0002a	53		 push	 ebx
  0002b	33 db		 xor	 ebx, ebx
  0002d	33 c0		 xor	 eax, eax
  0002f	e8 00 00 00 00	 call	 _gz_error
  00034	5b		 pop	 ebx
$LN4@gzclearerr:

; 571  : }

  00035	5d		 pop	 ebp
  00036	c3		 ret	 0
_gzclearerr ENDP
_TEXT	ENDS
PUBLIC	_gzerror
; Function compile flags: /Ogtp
;	COMDAT _gzerror
_TEXT	SEGMENT
_file$ = 8						; size = 4
_errnum$ = 12						; size = 4
_gzerror PROC						; COMDAT

; 535  : {

  00000	55		 push	 ebp
  00001	8b ec		 mov	 ebp, esp

; 536  :     gz_statep state;
; 537  : 
; 538  :     /* get internal structure and check integrity */
; 539  :     if (file == NULL)

  00003	8b 45 08	 mov	 eax, DWORD PTR _file$[ebp]
  00006	85 c0		 test	 eax, eax
  00008	75 04		 jne	 SHORT $LN3@gzerror
$LN10@gzerror:

; 540  :         return NULL;

  0000a	33 c0		 xor	 eax, eax

; 550  : }

  0000c	5d		 pop	 ebp
  0000d	c3		 ret	 0
$LN3@gzerror:

; 541  :     state = (gz_statep)file;
; 542  :     if (state->mode != GZ_READ && state->mode != GZ_WRITE)

  0000e	8b 48 10	 mov	 ecx, DWORD PTR [eax+16]
  00011	81 f9 4f 1c 00
	00		 cmp	 ecx, 7247		; 00001c4fH
  00017	74 08		 je	 SHORT $LN2@gzerror
  00019	81 f9 b1 79 00
	00		 cmp	 ecx, 31153		; 000079b1H

; 543  :         return NULL;

  0001f	75 e9		 jne	 SHORT $LN10@gzerror
$LN2@gzerror:

; 544  : 
; 545  :     /* return error information */
; 546  :     if (errnum != NULL)

  00021	8b 4d 0c	 mov	 ecx, DWORD PTR _errnum$[ebp]
  00024	85 c9		 test	 ecx, ecx
  00026	74 05		 je	 SHORT $LN1@gzerror

; 547  :         *errnum = state->err;

  00028	8b 50 5c	 mov	 edx, DWORD PTR [eax+92]
  0002b	89 11		 mov	 DWORD PTR [ecx], edx
$LN1@gzerror:

; 548  :     return state->err == Z_MEM_ERROR ? "out of memory" :
; 549  :                                        (state->msg == NULL ? "" : state->msg);

  0002d	83 78 5c fc	 cmp	 DWORD PTR [eax+92], -4	; fffffffcH
  00031	75 07		 jne	 SHORT $LN8@gzerror
  00033	b8 00 00 00 00	 mov	 eax, OFFSET ??_C@_0O@BNNCBLEN@out?5of?5memory?$AA@

; 550  : }

  00038	5d		 pop	 ebp
  00039	c3		 ret	 0
$LN8@gzerror:

; 548  :     return state->err == Z_MEM_ERROR ? "out of memory" :
; 549  :                                        (state->msg == NULL ? "" : state->msg);

  0003a	8b 40 60	 mov	 eax, DWORD PTR [eax+96]
  0003d	85 c0		 test	 eax, eax
  0003f	75 05		 jne	 SHORT $LN4@gzerror
  00041	b8 00 00 00 00	 mov	 eax, OFFSET ??_C@_00CNPNBAHC@?$AA@
$LN4@gzerror:

; 550  : }

  00046	5d		 pop	 ebp
  00047	c3		 ret	 0
_gzerror ENDP
_TEXT	ENDS
PUBLIC	_gzeof
; Function compile flags: /Ogtp
;	COMDAT _gzeof
_TEXT	SEGMENT
_file$ = 8						; size = 4
_gzeof	PROC						; COMDAT

; 517  : {

  00000	55		 push	 ebp
  00001	8b ec		 mov	 ebp, esp

; 518  :     gz_statep state;
; 519  : 
; 520  :     /* get internal structure and check integrity */
; 521  :     if (file == NULL)

  00003	8b 4d 08	 mov	 ecx, DWORD PTR _file$[ebp]
  00006	85 c9		 test	 ecx, ecx

; 522  :         return 0;

  00008	74 1d		 je	 SHORT $LN5@gzeof

; 523  :     state = (gz_statep)file;
; 524  :     if (state->mode != GZ_READ && state->mode != GZ_WRITE)

  0000a	8b 41 10	 mov	 eax, DWORD PTR [ecx+16]
  0000d	3d 4f 1c 00 00	 cmp	 eax, 7247		; 00001c4fH
  00012	74 0e		 je	 SHORT $LN8@gzeof
  00014	3d b1 79 00 00	 cmp	 eax, 31153		; 000079b1H

; 525  :         return 0;

  00019	75 0c		 jne	 SHORT $LN5@gzeof

; 526  : 
; 527  :     /* return end-of-file state */
; 528  :     return state->mode == GZ_READ ? state->past : 0;

  0001b	3d 4f 1c 00 00	 cmp	 eax, 7247		; 00001c4fH
  00020	75 05		 jne	 SHORT $LN5@gzeof
$LN8@gzeof:
  00022	8b 41 44	 mov	 eax, DWORD PTR [ecx+68]

; 529  : }

  00025	5d		 pop	 ebp
  00026	c3		 ret	 0
$LN5@gzeof:

; 526  : 
; 527  :     /* return end-of-file state */
; 528  :     return state->mode == GZ_READ ? state->past : 0;

  00027	33 c0		 xor	 eax, eax

; 529  : }

  00029	5d		 pop	 ebp
  0002a	c3		 ret	 0
_gzeof	ENDP
_TEXT	ENDS
PUBLIC	_gzoffset64
; Function compile flags: /Ogtp
;	COMDAT _gzoffset64
_TEXT	SEGMENT
_gzoffset64 PROC					; COMDAT
; _file$ = esi

; 485  :     z_off64_t offset;
; 486  :     gz_statep state;
; 487  : 
; 488  :     /* get internal structure and check integrity */
; 489  :     if (file == NULL)

  00000	85 f6		 test	 esi, esi
  00002	75 06		 jne	 SHORT $LN4@gzoffset64
$LN7@gzoffset64:

; 490  :         return -1;

  00004	83 c8 ff	 or	 eax, -1
  00007	0b d0		 or	 edx, eax

; 501  :     return offset;
; 502  : }

  00009	c3		 ret	 0
$LN4@gzoffset64:

; 491  :     state = (gz_statep)file;
; 492  :     if (state->mode != GZ_READ && state->mode != GZ_WRITE)

  0000a	8b 46 10	 mov	 eax, DWORD PTR [esi+16]
  0000d	3d 4f 1c 00 00	 cmp	 eax, 7247		; 00001c4fH
  00012	74 07		 je	 SHORT $LN3@gzoffset64
  00014	3d b1 79 00 00	 cmp	 eax, 31153		; 000079b1H

; 493  :         return -1;

  00019	75 e9		 jne	 SHORT $LN7@gzoffset64
$LN3@gzoffset64:

; 494  : 
; 495  :     /* compute and return effective offset in file */
; 496  :     offset = LSEEK(state->fd, 0, SEEK_CUR);

  0001b	8b 46 14	 mov	 eax, DWORD PTR [esi+20]
  0001e	6a 01		 push	 1
  00020	6a 00		 push	 0
  00022	6a 00		 push	 0
  00024	50		 push	 eax
  00025	e8 00 00 00 00	 call	 __lseeki64

; 497  :     if (offset == -1)

  0002a	8b c8		 mov	 ecx, eax
  0002c	23 ca		 and	 ecx, edx
  0002e	83 c4 10	 add	 esp, 16			; 00000010H
  00031	83 f9 ff	 cmp	 ecx, -1

; 498  :         return -1;

  00034	74 ce		 je	 SHORT $LN7@gzoffset64

; 499  :     if (state->mode == GZ_READ)             /* reading */

  00036	81 7e 10 4f 1c
	00 00		 cmp	 DWORD PTR [esi+16], 7247 ; 00001c4fH
  0003d	75 06		 jne	 SHORT $LN5@gzoffset64

; 500  :         offset -= state->strm.avail_in;     /* don't count buffered input */

  0003f	2b 46 68	 sub	 eax, DWORD PTR [esi+104]
  00042	83 da 00	 sbb	 edx, 0
$LN5@gzoffset64:

; 501  :     return offset;
; 502  : }

  00045	c3		 ret	 0
_gzoffset64 ENDP
_TEXT	ENDS
PUBLIC	_gztell64
; Function compile flags: /Ogtp
;	COMDAT _gztell64
_TEXT	SEGMENT
_gztell64 PROC						; COMDAT
; _file$ = ecx

; 458  :     gz_statep state;
; 459  : 
; 460  :     /* get internal structure and check integrity */
; 461  :     if (file == NULL)

  00000	85 c9		 test	 ecx, ecx
  00002	75 06		 jne	 SHORT $LN2@gztell64
$LN7@gztell64:

; 462  :         return -1;

  00004	83 c8 ff	 or	 eax, -1
  00007	0b d0		 or	 edx, eax

; 469  : }

  00009	c3		 ret	 0
$LN2@gztell64:

; 463  :     state = (gz_statep)file;
; 464  :     if (state->mode != GZ_READ && state->mode != GZ_WRITE)

  0000a	8b 41 10	 mov	 eax, DWORD PTR [ecx+16]
  0000d	3d 4f 1c 00 00	 cmp	 eax, 7247		; 00001c4fH
  00012	74 07		 je	 SHORT $LN1@gztell64
  00014	3d b1 79 00 00	 cmp	 eax, 31153		; 000079b1H

; 465  :         return -1;

  00019	75 e9		 jne	 SHORT $LN7@gztell64
$LN1@gztell64:

; 466  : 
; 467  :     /* return position */
; 468  :     return state->x.pos + (state->seek ? state->skip : 0);

  0001b	83 79 58 00	 cmp	 DWORD PTR [ecx+88], 0
  0001f	56		 push	 esi
  00020	74 12		 je	 SHORT $LN5@gztell64
  00022	8b 51 50	 mov	 edx, DWORD PTR [ecx+80]
  00025	8b 41 08	 mov	 eax, DWORD PTR [ecx+8]
  00028	8b 71 54	 mov	 esi, DWORD PTR [ecx+84]
  0002b	03 c2		 add	 eax, edx
  0002d	8b 51 0c	 mov	 edx, DWORD PTR [ecx+12]
  00030	13 d6		 adc	 edx, esi
  00032	5e		 pop	 esi

; 469  : }

  00033	c3		 ret	 0
$LN5@gztell64:

; 466  : 
; 467  :     /* return position */
; 468  :     return state->x.pos + (state->seek ? state->skip : 0);

  00034	8b 41 08	 mov	 eax, DWORD PTR [ecx+8]
  00037	33 d2		 xor	 edx, edx
  00039	33 f6		 xor	 esi, esi
  0003b	03 c2		 add	 eax, edx
  0003d	8b 51 0c	 mov	 edx, DWORD PTR [ecx+12]
  00040	13 d6		 adc	 edx, esi
  00042	5e		 pop	 esi

; 469  : }

  00043	c3		 ret	 0
_gztell64 ENDP
_TEXT	ENDS
PUBLIC	_gzbuffer
; Function compile flags: /Ogtp
;	COMDAT _gzbuffer
_TEXT	SEGMENT
_file$ = 8						; size = 4
_size$ = 12						; size = 4
_gzbuffer PROC						; COMDAT

; 319  : {

  00000	55		 push	 ebp
  00001	8b ec		 mov	 ebp, esp

; 320  :     gz_statep state;
; 321  : 
; 322  :     /* get internal structure and check integrity */
; 323  :     if (file == NULL)

  00003	8b 4d 08	 mov	 ecx, DWORD PTR _file$[ebp]
  00006	85 c9		 test	 ecx, ecx
  00008	75 05		 jne	 SHORT $LN5@gzbuffer
$LN8@gzbuffer:

; 324  :         return -1;

  0000a	83 c8 ff	 or	 eax, -1

; 340  : }

  0000d	5d		 pop	 ebp
  0000e	c3		 ret	 0
$LN5@gzbuffer:

; 325  :     state = (gz_statep)file;
; 326  :     if (state->mode != GZ_READ && state->mode != GZ_WRITE)

  0000f	8b 41 10	 mov	 eax, DWORD PTR [ecx+16]
  00012	3d 4f 1c 00 00	 cmp	 eax, 7247		; 00001c4fH
  00017	74 07		 je	 SHORT $LN4@gzbuffer
  00019	3d b1 79 00 00	 cmp	 eax, 31153		; 000079b1H

; 327  :         return -1;

  0001e	75 ea		 jne	 SHORT $LN8@gzbuffer
$LN4@gzbuffer:

; 328  : 
; 329  :     /* make sure we haven't already allocated memory */
; 330  :     if (state->size != 0)

  00020	83 79 1c 00	 cmp	 DWORD PTR [ecx+28], 0

; 331  :         return -1;

  00024	75 e4		 jne	 SHORT $LN8@gzbuffer

; 332  : 
; 333  :     /* check and set requested size */
; 334  :     if ((size << 1) < size)

  00026	8b 45 0c	 mov	 eax, DWORD PTR _size$[ebp]
  00029	8d 14 00	 lea	 edx, DWORD PTR [eax+eax]
  0002c	3b d0		 cmp	 edx, eax

; 335  :         return -1;              /* need to be able to double it */

  0002e	72 da		 jb	 SHORT $LN8@gzbuffer

; 336  :     if (size < 2)

  00030	83 f8 02	 cmp	 eax, 2
  00033	73 05		 jae	 SHORT $LN1@gzbuffer

; 337  :         size = 2;               /* need two bytes to check magic header */

  00035	b8 02 00 00 00	 mov	 eax, 2
$LN1@gzbuffer:

; 338  :     state->want = size;

  0003a	89 41 20	 mov	 DWORD PTR [ecx+32], eax

; 339  :     return 0;

  0003d	33 c0		 xor	 eax, eax

; 340  : }

  0003f	5d		 pop	 ebp
  00040	c3		 ret	 0
_gzbuffer ENDP
; Function compile flags: /Ogtp
_TEXT	ENDS
;	COMDAT _gz_reset
_TEXT	SEGMENT
_gz_reset PROC						; COMDAT
; _state$ = esi

; 77   : {

  00000	53		 push	 ebx
  00001	57		 push	 edi

; 78   :     state->x.have = 0;              /* no output data available */

  00002	33 ff		 xor	 edi, edi

; 79   :     if (state->mode == GZ_READ) {   /* for reading ... */

  00004	81 7e 10 4f 1c
	00 00		 cmp	 DWORD PTR [esi+16], 7247 ; 00001c4fH
  0000b	89 3e		 mov	 DWORD PTR [esi], edi
  0000d	75 09		 jne	 SHORT $LN1@gz_reset

; 80   :         state->eof = 0;             /* not at end of file */

  0000f	89 7e 40	 mov	 DWORD PTR [esi+64], edi

; 81   :         state->past = 0;            /* have not read past end yet */

  00012	89 7e 44	 mov	 DWORD PTR [esi+68], edi

; 82   :         state->how = LOOK;          /* look for gzip header */

  00015	89 7e 30	 mov	 DWORD PTR [esi+48], edi
$LN1@gz_reset:

; 83   :     }
; 84   :     state->seek = 0;                /* no seek request pending */
; 85   :     gz_error(state, Z_OK, NULL);    /* clear error */

  00018	33 db		 xor	 ebx, ebx
  0001a	33 c0		 xor	 eax, eax
  0001c	8b ce		 mov	 ecx, esi
  0001e	89 7e 58	 mov	 DWORD PTR [esi+88], edi
  00021	e8 00 00 00 00	 call	 _gz_error

; 86   :     state->x.pos = 0;               /* no uncompressed data yet */

  00026	89 7e 08	 mov	 DWORD PTR [esi+8], edi
  00029	89 7e 0c	 mov	 DWORD PTR [esi+12], edi

; 87   :     state->strm.avail_in = 0;       /* no input data yet */

  0002c	89 7e 68	 mov	 DWORD PTR [esi+104], edi
  0002f	5f		 pop	 edi
  00030	5b		 pop	 ebx

; 88   : }

  00031	c3		 ret	 0
_gz_reset ENDP
PUBLIC	_gzoffset
; Function compile flags: /Ogtp
;	COMDAT _gzoffset
_TEXT	SEGMENT
_file$ = 8						; size = 4
_gzoffset PROC						; COMDAT

; 507  : {

  00000	55		 push	 ebp
  00001	8b ec		 mov	 ebp, esp
  00003	83 e4 f8	 and	 esp, -8			; fffffff8H
  00006	51		 push	 ecx
  00007	56		 push	 esi

; 508  :     z_off64_t ret;
; 509  : 
; 510  :     ret = gzoffset64(file);

  00008	8b 75 08	 mov	 esi, DWORD PTR _file$[ebp]
  0000b	e8 00 00 00 00	 call	 _gzoffset64
  00010	8b c8		 mov	 ecx, eax
  00012	8b f2		 mov	 esi, edx

; 511  :     return ret == (z_off_t)ret ? (z_off_t)ret : -1;

  00014	99		 cdq
  00015	3b c8		 cmp	 ecx, eax
  00017	75 0b		 jne	 SHORT $LN3@gzoffset
  00019	3b f2		 cmp	 esi, edx
  0001b	75 07		 jne	 SHORT $LN3@gzoffset
  0001d	8b c1		 mov	 eax, ecx

; 512  : }

  0001f	5e		 pop	 esi
  00020	8b e5		 mov	 esp, ebp
  00022	5d		 pop	 ebp
  00023	c3		 ret	 0
$LN3@gzoffset:

; 511  :     return ret == (z_off_t)ret ? (z_off_t)ret : -1;

  00024	83 c8 ff	 or	 eax, -1

; 512  : }

  00027	5e		 pop	 esi
  00028	8b e5		 mov	 esp, ebp
  0002a	5d		 pop	 ebp
  0002b	c3		 ret	 0
_gzoffset ENDP
_TEXT	ENDS
PUBLIC	_gztell
; Function compile flags: /Ogtp
;	COMDAT _gztell
_TEXT	SEGMENT
_file$ = 8						; size = 4
_gztell	PROC						; COMDAT

; 474  : {

  00000	55		 push	 ebp
  00001	8b ec		 mov	 ebp, esp

; 475  :     z_off64_t ret;
; 476  : 
; 477  :     ret = gztell64(file);

  00003	8b 4d 08	 mov	 ecx, DWORD PTR _file$[ebp]
  00006	56		 push	 esi
  00007	e8 00 00 00 00	 call	 _gztell64
  0000c	8b c8		 mov	 ecx, eax
  0000e	8b f2		 mov	 esi, edx

; 478  :     return ret == (z_off_t)ret ? (z_off_t)ret : -1;

  00010	99		 cdq
  00011	3b c8		 cmp	 ecx, eax
  00013	75 09		 jne	 SHORT $LN3@gztell
  00015	3b f2		 cmp	 esi, edx
  00017	75 05		 jne	 SHORT $LN3@gztell
  00019	8b c1		 mov	 eax, ecx
  0001b	5e		 pop	 esi

; 479  : }

  0001c	5d		 pop	 ebp
  0001d	c3		 ret	 0
$LN3@gztell:

; 478  :     return ret == (z_off_t)ret ? (z_off_t)ret : -1;

  0001e	83 c8 ff	 or	 eax, -1
  00021	5e		 pop	 esi

; 479  : }

  00022	5d		 pop	 ebp
  00023	c3		 ret	 0
_gztell	ENDP
_TEXT	ENDS
PUBLIC	_gzrewind
; Function compile flags: /Ogtp
;	COMDAT _gzrewind
_TEXT	SEGMENT
_file$ = 8						; size = 4
_gzrewind PROC						; COMDAT

; 345  : {

  00000	55		 push	 ebp
  00001	8b ec		 mov	 ebp, esp
  00003	83 e4 f8	 and	 esp, -8			; fffffff8H
  00006	51		 push	 ecx
  00007	56		 push	 esi

; 346  :     gz_statep state;
; 347  : 
; 348  :     /* get internal structure */
; 349  :     if (file == NULL)

  00008	8b 75 08	 mov	 esi, DWORD PTR _file$[ebp]
  0000b	85 f6		 test	 esi, esi

; 350  :         return -1;

  0000d	74 3e		 je	 SHORT $LN2@gzrewind

; 351  :     state = (gz_statep)file;
; 352  : 
; 353  :     /* check that we're reading and that there's no error */
; 354  :     if (state->mode != GZ_READ ||
; 355  :             (state->err != Z_OK && state->err != Z_BUF_ERROR))

  0000f	81 7e 10 4f 1c
	00 00		 cmp	 DWORD PTR [esi+16], 7247 ; 00001c4fH
  00016	75 35		 jne	 SHORT $LN2@gzrewind
  00018	8b 46 5c	 mov	 eax, DWORD PTR [esi+92]
  0001b	85 c0		 test	 eax, eax
  0001d	74 05		 je	 SHORT $LN3@gzrewind
  0001f	83 f8 fb	 cmp	 eax, -5			; fffffffbH
  00022	75 29		 jne	 SHORT $LN2@gzrewind
$LN3@gzrewind:

; 357  : 
; 358  :     /* back up and start over */
; 359  :     if (LSEEK(state->fd, state->start, SEEK_SET) == -1)

  00024	8b 46 3c	 mov	 eax, DWORD PTR [esi+60]
  00027	8b 4e 38	 mov	 ecx, DWORD PTR [esi+56]
  0002a	8b 56 14	 mov	 edx, DWORD PTR [esi+20]
  0002d	6a 00		 push	 0
  0002f	50		 push	 eax
  00030	51		 push	 ecx
  00031	52		 push	 edx
  00032	e8 00 00 00 00	 call	 __lseeki64
  00037	23 c2		 and	 eax, edx
  00039	83 c4 10	 add	 esp, 16			; 00000010H
  0003c	83 f8 ff	 cmp	 eax, -1

; 360  :         return -1;

  0003f	74 0c		 je	 SHORT $LN2@gzrewind

; 361  :     gz_reset(state);

  00041	e8 00 00 00 00	 call	 _gz_reset

; 362  :     return 0;

  00046	33 c0		 xor	 eax, eax

; 363  : }

  00048	5e		 pop	 esi
  00049	8b e5		 mov	 esp, ebp
  0004b	5d		 pop	 ebp
  0004c	c3		 ret	 0
$LN2@gzrewind:

; 356  :         return -1;

  0004d	83 c8 ff	 or	 eax, -1

; 363  : }

  00050	5e		 pop	 esi
  00051	8b e5		 mov	 esp, ebp
  00053	5d		 pop	 ebp
  00054	c3		 ret	 0
_gzrewind ENDP
; Function compile flags: /Ogtp
_TEXT	ENDS
;	COMDAT _gz_open
_TEXT	SEGMENT
_exclusive$ = -8					; size = 4
tv149 = -4						; size = 4
_path$ = 8						; size = 4
_fd$ = 12						; size = 4
_gz_open PROC						; COMDAT
; _mode$ = eax

; 95   : {

  00000	55		 push	 ebp
  00001	8b ec		 mov	 ebp, esp
  00003	83 ec 08	 sub	 esp, 8
  00006	53		 push	 ebx

; 96   :     gz_statep state;
; 97   :     z_size_t len;
; 98   :     int oflag;
; 99   : #ifdef O_CLOEXEC
; 100  :     int cloexec = 0;
; 101  : #endif
; 102  : #ifdef O_EXCL
; 103  :     int exclusive = 0;

  00007	33 db		 xor	 ebx, ebx
  00009	57		 push	 edi
  0000a	8b f8		 mov	 edi, eax
  0000c	89 5d f8	 mov	 DWORD PTR _exclusive$[ebp], ebx

; 104  : #endif
; 105  : 
; 106  :     /* check input */
; 107  :     if (path == NULL)

  0000f	39 5d 08	 cmp	 DWORD PTR _path$[ebp], ebx
  00012	75 08		 jne	 SHORT $LN35@gz_open

; 108  :         return NULL;

  00014	5f		 pop	 edi
  00015	33 c0		 xor	 eax, eax
  00017	5b		 pop	 ebx

; 267  : }

  00018	8b e5		 mov	 esp, ebp
  0001a	5d		 pop	 ebp
  0001b	c3		 ret	 0
$LN35@gz_open:
  0001c	56		 push	 esi

; 109  : 
; 110  :     /* allocate gzFile structure to return */
; 111  :     state = (gz_statep)malloc(sizeof(gz_state));

  0001d	68 a0 00 00 00	 push	 160			; 000000a0H
  00022	e8 00 00 00 00	 call	 _malloc
  00027	8b f0		 mov	 esi, eax
  00029	83 c4 04	 add	 esp, 4

; 112  :     if (state == NULL)

  0002c	3b f3		 cmp	 esi, ebx

; 113  :         return NULL;

  0002e	0f 84 d8 01 00
	00		 je	 $LN52@gz_open

; 114  :     state->size = 0;            /* no buffers allocated yet */
; 115  :     state->want = GZBUFSIZE;    /* requested buffer size */
; 116  :     state->msg = NULL;          /* no error message yet */
; 117  : 
; 118  :     /* interpret mode */
; 119  :     state->mode = GZ_NONE;
; 120  :     state->level = Z_DEFAULT_COMPRESSION;
; 121  :     state->strategy = Z_DEFAULT_STRATEGY;
; 122  :     state->direct = 0;
; 123  :     while (*mode) {

  00034	8a 07		 mov	 al, BYTE PTR [edi]
  00036	89 5e 1c	 mov	 DWORD PTR [esi+28], ebx
  00039	c7 46 20 00 20
	00 00		 mov	 DWORD PTR [esi+32], 8192 ; 00002000H
  00040	89 5e 60	 mov	 DWORD PTR [esi+96], ebx
  00043	89 5e 10	 mov	 DWORD PTR [esi+16], ebx
  00046	c7 46 48 ff ff
	ff ff		 mov	 DWORD PTR [esi+72], -1
  0004d	89 5e 4c	 mov	 DWORD PTR [esi+76], ebx
  00050	89 5e 2c	 mov	 DWORD PTR [esi+44], ebx
  00053	84 c0		 test	 al, al
  00055	0f 84 83 00 00
	00		 je	 $LN32@gz_open
  0005b	ba 03 00 00 00	 mov	 edx, 3
  00060	8d 4a 01	 lea	 ecx, DWORD PTR [edx+1]
$LL33@gz_open:

; 124  :         if (*mode >= '0' && *mode <= '9')

  00063	3c 30		 cmp	 al, 48			; 00000030H
  00065	7c 0f		 jl	 SHORT $LN31@gz_open
  00067	3c 39		 cmp	 al, 57			; 00000039H
  00069	7f 0b		 jg	 SHORT $LN31@gz_open

; 125  :             state->level = *mode - '0';

  0006b	0f be c0	 movsx	 eax, al
  0006e	83 e8 30	 sub	 eax, 48			; 00000030H
  00071	89 46 48	 mov	 DWORD PTR [esi+72], eax

; 126  :         else

  00074	eb 60		 jmp	 SHORT $LN48@gz_open
$LN31@gz_open:

; 127  :             switch (*mode) {

  00076	0f be c0	 movsx	 eax, al
  00079	83 c0 d5	 add	 eax, -43		; ffffffd5H
  0007c	83 f8 4d	 cmp	 eax, 77			; 0000004dH
  0007f	77 55		 ja	 SHORT $LN48@gz_open
  00081	0f b6 80 00 00
	00 00		 movzx	 eax, BYTE PTR $LN46@gz_open[eax]
  00088	ff 24 85 00 00
	00 00		 jmp	 DWORD PTR $LN54@gz_open[eax*4]
$LN27@gz_open:

; 128  :             case 'r':
; 129  :                 state->mode = GZ_READ;

  0008f	c7 46 10 4f 1c
	00 00		 mov	 DWORD PTR [esi+16], 7247 ; 00001c4fH

; 130  :                 break;

  00096	eb 3e		 jmp	 SHORT $LN48@gz_open
$LN26@gz_open:

; 131  : #ifndef NO_GZCOMPRESS
; 132  :             case 'w':
; 133  :                 state->mode = GZ_WRITE;

  00098	c7 46 10 b1 79
	00 00		 mov	 DWORD PTR [esi+16], 31153 ; 000079b1H

; 134  :                 break;

  0009f	eb 35		 jmp	 SHORT $LN48@gz_open
$LN25@gz_open:

; 135  :             case 'a':
; 136  :                 state->mode = GZ_APPEND;

  000a1	c7 46 10 01 00
	00 00		 mov	 DWORD PTR [esi+16], 1

; 137  :                 break;

  000a8	eb 2c		 jmp	 SHORT $LN48@gz_open
$LN22@gz_open:

; 138  : #endif
; 139  :             case '+':       /* can't read and write at the same time */
; 140  :                 free(state);
; 141  :                 return NULL;
; 142  :             case 'b':       /* ignore -- will request binary anyway */
; 143  :                 break;
; 144  : #ifdef O_CLOEXEC
; 145  :             case 'e':
; 146  :                 cloexec = 1;
; 147  :                 break;
; 148  : #endif
; 149  : #ifdef O_EXCL
; 150  :             case 'x':
; 151  :                 exclusive = 1;

  000aa	c7 45 f8 01 00
	00 00		 mov	 DWORD PTR _exclusive$[ebp], 1

; 152  :                 break;

  000b1	eb 23		 jmp	 SHORT $LN48@gz_open
$LN21@gz_open:

; 153  : #endif
; 154  :             case 'f':
; 155  :                 state->strategy = Z_FILTERED;

  000b3	c7 46 4c 01 00
	00 00		 mov	 DWORD PTR [esi+76], 1

; 156  :                 break;

  000ba	eb 1a		 jmp	 SHORT $LN48@gz_open
$LN20@gz_open:

; 157  :             case 'h':
; 158  :                 state->strategy = Z_HUFFMAN_ONLY;

  000bc	c7 46 4c 02 00
	00 00		 mov	 DWORD PTR [esi+76], 2

; 159  :                 break;

  000c3	eb 11		 jmp	 SHORT $LN48@gz_open
$LN19@gz_open:

; 160  :             case 'R':
; 161  :                 state->strategy = Z_RLE;

  000c5	89 56 4c	 mov	 DWORD PTR [esi+76], edx

; 162  :                 break;

  000c8	eb 0c		 jmp	 SHORT $LN48@gz_open
$LN18@gz_open:

; 163  :             case 'F':
; 164  :                 state->strategy = Z_FIXED;

  000ca	89 4e 4c	 mov	 DWORD PTR [esi+76], ecx

; 165  :                 break;

  000cd	eb 07		 jmp	 SHORT $LN48@gz_open
$LN17@gz_open:

; 166  :             case 'T':
; 167  :                 state->direct = 1;

  000cf	c7 46 2c 01 00
	00 00		 mov	 DWORD PTR [esi+44], 1
$LN48@gz_open:

; 114  :     state->size = 0;            /* no buffers allocated yet */
; 115  :     state->want = GZBUFSIZE;    /* requested buffer size */
; 116  :     state->msg = NULL;          /* no error message yet */
; 117  : 
; 118  :     /* interpret mode */
; 119  :     state->mode = GZ_NONE;
; 120  :     state->level = Z_DEFAULT_COMPRESSION;
; 121  :     state->strategy = Z_DEFAULT_STRATEGY;
; 122  :     state->direct = 0;
; 123  :     while (*mode) {

  000d6	8a 47 01	 mov	 al, BYTE PTR [edi+1]

; 168  :                 break;
; 169  :             default:        /* could consider as an error, but just ignore */
; 170  :                 ;
; 171  :             }
; 172  :         mode++;

  000d9	47		 inc	 edi
  000da	84 c0		 test	 al, al
  000dc	75 85		 jne	 SHORT $LL33@gz_open
$LN32@gz_open:

; 173  :     }
; 174  : 
; 175  :     /* must provide an "r", "w", or "a" */
; 176  :     if (state->mode == GZ_NONE) {

  000de	8b 46 10	 mov	 eax, DWORD PTR [esi+16]
  000e1	3b c3		 cmp	 eax, ebx

; 177  :         free(state);
; 178  :         return NULL;

  000e3	74 5e		 je	 SHORT $LN53@gz_open

; 179  :     }
; 180  : 
; 181  :     /* can't force transparent read */
; 182  :     if (state->mode == GZ_READ) {

  000e5	3d 4f 1c 00 00	 cmp	 eax, 7247		; 00001c4fH
  000ea	75 0c		 jne	 SHORT $LN14@gz_open

; 183  :         if (state->direct) {

  000ec	39 5e 2c	 cmp	 DWORD PTR [esi+44], ebx

; 184  :             free(state);
; 185  :             return NULL;

  000ef	75 52		 jne	 SHORT $LN53@gz_open

; 186  :         }
; 187  :         state->direct = 1;      /* for empty file */

  000f1	c7 46 2c 01 00
	00 00		 mov	 DWORD PTR [esi+44], 1
$LN14@gz_open:

; 188  :     }
; 189  : 
; 190  :     /* save the path name for error messages */
; 191  : #ifdef WIDECHAR
; 192  :     if (fd == -2) {

  000f8	83 7d 0c fe	 cmp	 DWORD PTR _fd$[ebp], -2	; fffffffeH
  000fc	75 19		 jne	 SHORT $LN12@gz_open

; 193  :         len = wcstombs(NULL, path, 0);

  000fe	8b 4d 08	 mov	 ecx, DWORD PTR _path$[ebp]
  00101	53		 push	 ebx
  00102	51		 push	 ecx
  00103	53		 push	 ebx
  00104	e8 00 00 00 00	 call	 _wcstombs
  00109	8b f8		 mov	 edi, eax
  0010b	83 c4 0c	 add	 esp, 12			; 0000000cH

; 194  :         if (len == (z_size_t)-1)

  0010e	83 ff ff	 cmp	 edi, -1
  00111	75 18		 jne	 SHORT $LN10@gz_open

; 195  :             len = 0;

  00113	33 ff		 xor	 edi, edi

; 196  :     }
; 197  :     else

  00115	eb 14		 jmp	 SHORT $LN10@gz_open
$LN12@gz_open:

; 198  : #endif
; 199  :         len = strlen((const char *)path);

  00117	8b 45 08	 mov	 eax, DWORD PTR _path$[ebp]
  0011a	8d 50 01	 lea	 edx, DWORD PTR [eax+1]
  0011d	8d 49 00	 npad	 3
$LL47@gz_open:
  00120	8a 08		 mov	 cl, BYTE PTR [eax]
  00122	40		 inc	 eax
  00123	84 c9		 test	 cl, cl
  00125	75 f9		 jne	 SHORT $LL47@gz_open
  00127	2b c2		 sub	 eax, edx
  00129	8b f8		 mov	 edi, eax
$LN10@gz_open:

; 200  :     state->path = (char *)malloc(len + 1);

  0012b	8d 5f 01	 lea	 ebx, DWORD PTR [edi+1]
  0012e	53		 push	 ebx
  0012f	e8 00 00 00 00	 call	 _malloc
  00134	8b d0		 mov	 edx, eax
  00136	83 c4 04	 add	 esp, 4
  00139	89 55 fc	 mov	 DWORD PTR tv149[ebp], edx
  0013c	89 56 18	 mov	 DWORD PTR [esi+24], edx

; 201  :     if (state->path == NULL) {

  0013f	85 d2		 test	 edx, edx
  00141	75 12		 jne	 SHORT $LN9@gz_open
$LN53@gz_open:

; 202  :         free(state);

  00143	56		 push	 esi
  00144	e8 00 00 00 00	 call	 _free
  00149	83 c4 04	 add	 esp, 4
  0014c	5e		 pop	 esi
  0014d	5f		 pop	 edi

; 203  :         return NULL;

  0014e	33 c0		 xor	 eax, eax
  00150	5b		 pop	 ebx

; 267  : }

  00151	8b e5		 mov	 esp, ebp
  00153	5d		 pop	 ebp
  00154	c3		 ret	 0
$LN9@gz_open:

; 204  :     }
; 205  : #ifdef WIDECHAR
; 206  :     if (fd == -2)

  00155	83 7d 0c fe	 cmp	 DWORD PTR _fd$[ebp], -2	; fffffffeH
  00159	75 19		 jne	 SHORT $LN8@gz_open

; 207  :         if (len)

  0015b	85 ff		 test	 edi, edi
  0015d	74 10		 je	 SHORT $LN7@gz_open

; 208  :             wcstombs(state->path, path, len + 1);

  0015f	8b 45 08	 mov	 eax, DWORD PTR _path$[ebp]
  00162	53		 push	 ebx
  00163	50		 push	 eax
  00164	52		 push	 edx
  00165	e8 00 00 00 00	 call	 _wcstombs
  0016a	83 c4 0c	 add	 esp, 12			; 0000000cH

; 209  :         else

  0016d	eb 18		 jmp	 SHORT $LN50@gz_open
$LN7@gz_open:

; 210  :             *(state->path) = 0;

  0016f	c6 02 00	 mov	 BYTE PTR [edx], 0

; 211  :     else

  00172	eb 16		 jmp	 SHORT $LN5@gz_open
$LN8@gz_open:

; 212  : #endif
; 213  : #if !defined(NO_snprintf) && !defined(NO_vsnprintf)
; 214  :         (void)snprintf(state->path, len + 1, "%s", (const char *)path);

  00174	8b 4d 08	 mov	 ecx, DWORD PTR _path$[ebp]
  00177	51		 push	 ecx
  00178	68 00 00 00 00	 push	 OFFSET ??_C@_02DKCKIIND@?$CFs?$AA@
  0017d	53		 push	 ebx
  0017e	52		 push	 edx
  0017f	e8 00 00 00 00	 call	 __snprintf
  00184	83 c4 10	 add	 esp, 16			; 00000010H
$LN50@gz_open:
  00187	8b 55 fc	 mov	 edx, DWORD PTR tv149[ebp]
$LN5@gz_open:

; 215  : #else
; 216  :         strcpy(state->path, path);
; 217  : #endif
; 218  : 
; 219  :     /* compute the flags for open() */
; 220  :     oflag =
; 221  : #ifdef O_LARGEFILE
; 222  :         O_LARGEFILE |
; 223  : #endif
; 224  : #ifdef O_BINARY
; 225  :         O_BINARY |
; 226  : #endif
; 227  : #ifdef O_CLOEXEC
; 228  :         (cloexec ? O_CLOEXEC : 0) |
; 229  : #endif
; 230  :         (state->mode == GZ_READ ?
; 231  :          O_RDONLY :
; 232  :          (O_WRONLY | O_CREAT |
; 233  : #ifdef O_EXCL
; 234  :           (exclusive ? O_EXCL : 0) |
; 235  : #endif
; 236  :           (state->mode == GZ_WRITE ?
; 237  :            O_TRUNC :
; 238  :            O_APPEND)));

  0018a	8b 5e 10	 mov	 ebx, DWORD PTR [esi+16]
  0018d	81 fb 4f 1c 00
	00		 cmp	 ebx, 7247		; 00001c4fH
  00193	75 04		 jne	 SHORT $LN38@gz_open
  00195	33 c0		 xor	 eax, eax
  00197	eb 28		 jmp	 SHORT $LN39@gz_open
$LN38@gz_open:
  00199	8b 4d f8	 mov	 ecx, DWORD PTR _exclusive$[ebp]
  0019c	8d 83 4f 86 ff
	ff		 lea	 eax, DWORD PTR [ebx-31153]
  001a2	f7 d8		 neg	 eax
  001a4	1b c0		 sbb	 eax, eax
  001a6	25 08 fe ff ff	 and	 eax, -504		; fffffe08H
  001ab	05 00 02 00 00	 add	 eax, 512		; 00000200H
  001b0	f7 d9		 neg	 ecx
  001b2	1b c9		 sbb	 ecx, ecx
  001b4	81 e1 00 04 00
	00		 and	 ecx, 1024		; 00000400H
  001ba	0b c1		 or	 eax, ecx
  001bc	0d 01 01 00 00	 or	 eax, 257		; 00000101H
$LN39@gz_open:

; 239  : 
; 240  :     /* open the file with the appropriate flags (or just use fd) */
; 241  :     state->fd = fd > -1 ? fd : (
; 242  : #ifdef WIDECHAR
; 243  :         fd == -2 ? _wopen(path, oflag, 0666) :
; 244  : #endif
; 245  :         open((const char *)path, oflag, 0666));

  001c1	8b 7d 0c	 mov	 edi, DWORD PTR _fd$[ebp]
  001c4	0d 00 80 00 00	 or	 eax, 32768		; 00008000H
  001c9	83 ff ff	 cmp	 edi, -1
  001cc	7f 27		 jg	 SHORT $LN41@gz_open
  001ce	68 b6 01 00 00	 push	 438			; 000001b6H
  001d3	50		 push	 eax
  001d4	83 ff fe	 cmp	 edi, -2			; fffffffeH
  001d7	75 0b		 jne	 SHORT $LN40@gz_open
  001d9	8b 55 08	 mov	 edx, DWORD PTR _path$[ebp]
  001dc	52		 push	 edx
  001dd	e8 00 00 00 00	 call	 __wopen
  001e2	eb 09		 jmp	 SHORT $LN51@gz_open
$LN40@gz_open:
  001e4	8b 45 08	 mov	 eax, DWORD PTR _path$[ebp]
  001e7	50		 push	 eax
  001e8	e8 00 00 00 00	 call	 _open
$LN51@gz_open:
  001ed	8b 55 fc	 mov	 edx, DWORD PTR tv149[ebp]
  001f0	8b f8		 mov	 edi, eax
  001f2	83 c4 0c	 add	 esp, 12			; 0000000cH
$LN41@gz_open:
  001f5	89 7e 14	 mov	 DWORD PTR [esi+20], edi

; 246  :     if (state->fd == -1) {

  001f8	83 ff ff	 cmp	 edi, -1
  001fb	75 18		 jne	 SHORT $LN4@gz_open

; 247  :         free(state->path);

  001fd	52		 push	 edx
  001fe	e8 00 00 00 00	 call	 _free

; 248  :         free(state);

  00203	56		 push	 esi
  00204	e8 00 00 00 00	 call	 _free
  00209	83 c4 08	 add	 esp, 8
$LN52@gz_open:

; 249  :         return NULL;

  0020c	5e		 pop	 esi
  0020d	5f		 pop	 edi
  0020e	33 c0		 xor	 eax, eax
  00210	5b		 pop	 ebx

; 267  : }

  00211	8b e5		 mov	 esp, ebp
  00213	5d		 pop	 ebp
  00214	c3		 ret	 0
$LN4@gz_open:

; 250  :     }
; 251  :     if (state->mode == GZ_APPEND) {

  00215	83 fb 01	 cmp	 ebx, 1
  00218	75 16		 jne	 SHORT $LN3@gz_open

; 252  :         LSEEK(state->fd, 0, SEEK_END);  /* so gzoffset() is correct */

  0021a	6a 02		 push	 2
  0021c	6a 00		 push	 0
  0021e	6a 00		 push	 0
  00220	57		 push	 edi
  00221	e8 00 00 00 00	 call	 __lseeki64
  00226	83 c4 10	 add	 esp, 16			; 00000010H

; 253  :         state->mode = GZ_WRITE;         /* simplify later checks */

  00229	c7 46 10 b1 79
	00 00		 mov	 DWORD PTR [esi+16], 31153 ; 000079b1H
$LN3@gz_open:

; 254  :     }
; 255  : 
; 256  :     /* save the current position for rewinding (only if reading) */
; 257  :     if (state->mode == GZ_READ) {

  00230	81 7e 10 4f 1c
	00 00		 cmp	 DWORD PTR [esi+16], 7247 ; 00001c4fH
  00237	75 26		 jne	 SHORT $LN1@gz_open

; 258  :         state->start = LSEEK(state->fd, 0, SEEK_CUR);

  00239	6a 01		 push	 1
  0023b	6a 00		 push	 0
  0023d	6a 00		 push	 0
  0023f	57		 push	 edi
  00240	e8 00 00 00 00	 call	 __lseeki64

; 259  :         if (state->start == -1) state->start = 0;

  00245	8b c8		 mov	 ecx, eax
  00247	23 ca		 and	 ecx, edx
  00249	83 c4 10	 add	 esp, 16			; 00000010H
  0024c	89 46 38	 mov	 DWORD PTR [esi+56], eax
  0024f	89 56 3c	 mov	 DWORD PTR [esi+60], edx
  00252	83 f9 ff	 cmp	 ecx, -1
  00255	75 08		 jne	 SHORT $LN1@gz_open
  00257	33 c0		 xor	 eax, eax
  00259	89 46 38	 mov	 DWORD PTR [esi+56], eax
  0025c	89 46 3c	 mov	 DWORD PTR [esi+60], eax
$LN1@gz_open:

; 260  :     }
; 261  : 
; 262  :     /* initialize stream */
; 263  :     gz_reset(state);

  0025f	e8 00 00 00 00	 call	 _gz_reset

; 264  : 
; 265  :     /* return stream */
; 266  :     return (gzFile)state;

  00264	8b c6		 mov	 eax, esi
  00266	5e		 pop	 esi
  00267	5f		 pop	 edi
  00268	5b		 pop	 ebx

; 267  : }

  00269	8b e5		 mov	 esp, ebp
  0026b	5d		 pop	 ebp
  0026c	c3		 ret	 0
  0026d	8d 49 00	 npad	 3
$LN54@gz_open:
  00270	00 00 00 00	 DD	 $LN53@gz_open
  00274	00 00 00 00	 DD	 $LN18@gz_open
  00278	00 00 00 00	 DD	 $LN19@gz_open
  0027c	00 00 00 00	 DD	 $LN17@gz_open
  00280	00 00 00 00	 DD	 $LN25@gz_open
  00284	00 00 00 00	 DD	 $LN21@gz_open
  00288	00 00 00 00	 DD	 $LN20@gz_open
  0028c	00 00 00 00	 DD	 $LN27@gz_open
  00290	00 00 00 00	 DD	 $LN26@gz_open
  00294	00 00 00 00	 DD	 $LN22@gz_open
  00298	00 00 00 00	 DD	 $LN48@gz_open
$LN46@gz_open:
  0029c	00		 DB	 0
  0029d	0a		 DB	 10			; 0000000aH
  0029e	0a		 DB	 10			; 0000000aH
  0029f	0a		 DB	 10			; 0000000aH
  002a0	0a		 DB	 10			; 0000000aH
  002a1	0a		 DB	 10			; 0000000aH
  002a2	0a		 DB	 10			; 0000000aH
  002a3	0a		 DB	 10			; 0000000aH
  002a4	0a		 DB	 10			; 0000000aH
  002a5	0a		 DB	 10			; 0000000aH
  002a6	0a		 DB	 10			; 0000000aH
  002a7	0a		 DB	 10			; 0000000aH
  002a8	0a		 DB	 10			; 0000000aH
  002a9	0a		 DB	 10			; 0000000aH
  002aa	0a		 DB	 10			; 0000000aH
  002ab	0a		 DB	 10			; 0000000aH
  002ac	0a		 DB	 10			; 0000000aH
  002ad	0a		 DB	 10			; 0000000aH
  002ae	0a		 DB	 10			; 0000000aH
  002af	0a		 DB	 10			; 0000000aH
  002b0	0a		 DB	 10			; 0000000aH
  002b1	0a		 DB	 10			; 0000000aH
  002b2	0a		 DB	 10			; 0000000aH
  002b3	0a		 DB	 10			; 0000000aH
  002b4	0a		 DB	 10			; 0000000aH
  002b5	0a		 DB	 10			; 0000000aH
  002b6	0a		 DB	 10			; 0000000aH
  002b7	01		 DB	 1
  002b8	0a		 DB	 10			; 0000000aH
  002b9	0a		 DB	 10			; 0000000aH
  002ba	0a		 DB	 10			; 0000000aH
  002bb	0a		 DB	 10			; 0000000aH
  002bc	0a		 DB	 10			; 0000000aH
  002bd	0a		 DB	 10			; 0000000aH
  002be	0a		 DB	 10			; 0000000aH
  002bf	0a		 DB	 10			; 0000000aH
  002c0	0a		 DB	 10			; 0000000aH
  002c1	0a		 DB	 10			; 0000000aH
  002c2	0a		 DB	 10			; 0000000aH
  002c3	02		 DB	 2
  002c4	0a		 DB	 10			; 0000000aH
  002c5	03		 DB	 3
  002c6	0a		 DB	 10			; 0000000aH
  002c7	0a		 DB	 10			; 0000000aH
  002c8	0a		 DB	 10			; 0000000aH
  002c9	0a		 DB	 10			; 0000000aH
  002ca	0a		 DB	 10			; 0000000aH
  002cb	0a		 DB	 10			; 0000000aH
  002cc	0a		 DB	 10			; 0000000aH
  002cd	0a		 DB	 10			; 0000000aH
  002ce	0a		 DB	 10			; 0000000aH
  002cf	0a		 DB	 10			; 0000000aH
  002d0	0a		 DB	 10			; 0000000aH
  002d1	0a		 DB	 10			; 0000000aH
  002d2	04		 DB	 4
  002d3	0a		 DB	 10			; 0000000aH
  002d4	0a		 DB	 10			; 0000000aH
  002d5	0a		 DB	 10			; 0000000aH
  002d6	0a		 DB	 10			; 0000000aH
  002d7	05		 DB	 5
  002d8	0a		 DB	 10			; 0000000aH
  002d9	06		 DB	 6
  002da	0a		 DB	 10			; 0000000aH
  002db	0a		 DB	 10			; 0000000aH
  002dc	0a		 DB	 10			; 0000000aH
  002dd	0a		 DB	 10			; 0000000aH
  002de	0a		 DB	 10			; 0000000aH
  002df	0a		 DB	 10			; 0000000aH
  002e0	0a		 DB	 10			; 0000000aH
  002e1	0a		 DB	 10			; 0000000aH
  002e2	0a		 DB	 10			; 0000000aH
  002e3	07		 DB	 7
  002e4	0a		 DB	 10			; 0000000aH
  002e5	0a		 DB	 10			; 0000000aH
  002e6	0a		 DB	 10			; 0000000aH
  002e7	0a		 DB	 10			; 0000000aH
  002e8	08		 DB	 8
  002e9	09		 DB	 9
_gz_open ENDP
PUBLIC	_gzseek64
; Function compile flags: /Ogtp
;	COMDAT _gzseek64
_TEXT	SEGMENT
tv405 = -8						; size = 8
_offset$ = 8						; size = 8
_gzseek64 PROC						; COMDAT
; _file$ = esi
; _whence$ = ecx

; 370  : {

  00000	55		 push	 ebp
  00001	8b ec		 mov	 ebp, esp
  00003	83 ec 08	 sub	 esp, 8
  00006	53		 push	 ebx
  00007	57		 push	 edi

; 371  :     unsigned n;
; 372  :     z_off64_t ret;
; 373  :     gz_statep state;
; 374  : 
; 375  :     /* get internal structure and check integrity */
; 376  :     if (file == NULL)

  00008	85 f6		 test	 esi, esi

; 377  :         return -1;

  0000a	74 28		 je	 SHORT $LN28@gzseek64

; 378  :     state = (gz_statep)file;
; 379  :     if (state->mode != GZ_READ && state->mode != GZ_WRITE)

  0000c	8b 56 10	 mov	 edx, DWORD PTR [esi+16]
  0000f	81 fa 4f 1c 00
	00		 cmp	 edx, 7247		; 00001c4fH
  00015	74 08		 je	 SHORT $LN14@gzseek64
  00017	81 fa b1 79 00
	00		 cmp	 edx, 31153		; 000079b1H

; 380  :         return -1;

  0001d	75 15		 jne	 SHORT $LN28@gzseek64
$LN14@gzseek64:

; 381  : 
; 382  :     /* check that there's no error */
; 383  :     if (state->err != Z_OK && state->err != Z_BUF_ERROR)

  0001f	8b 46 5c	 mov	 eax, DWORD PTR [esi+92]
  00022	85 c0		 test	 eax, eax
  00024	74 05		 je	 SHORT $LN13@gzseek64
  00026	83 f8 fb	 cmp	 eax, -5			; fffffffbH

; 384  :         return -1;

  00029	75 09		 jne	 SHORT $LN28@gzseek64
$LN13@gzseek64:

; 385  : 
; 386  :     /* can only seek from start or relative to current position */
; 387  :     if (whence != SEEK_SET && whence != SEEK_CUR)

  0002b	85 c9		 test	 ecx, ecx
  0002d	74 10		 je	 SHORT $LN20@gzseek64
  0002f	83 f9 01	 cmp	 ecx, 1
  00032	74 1c		 je	 SHORT $LN11@gzseek64
$LN28@gzseek64:

; 388  :         return -1;

  00034	83 c8 ff	 or	 eax, -1
  00037	0b d0		 or	 edx, eax

; 440  : }

  00039	5f		 pop	 edi
  0003a	5b		 pop	 ebx
  0003b	8b e5		 mov	 esp, ebp
  0003d	5d		 pop	 ebp
  0003e	c3		 ret	 0
$LN20@gzseek64:

; 389  : 
; 390  :     /* normalize offset to a SEEK_CUR specification */
; 391  :     if (whence == SEEK_SET)
; 392  :         offset -= state->x.pos;

  0003f	8b 5d 08	 mov	 ebx, DWORD PTR _offset$[ebp]
  00042	2b 5e 08	 sub	 ebx, DWORD PTR [esi+8]
  00045	8b 7d 0c	 mov	 edi, DWORD PTR _offset$[ebp+4]
  00048	1b 7e 0c	 sbb	 edi, DWORD PTR [esi+12]
  0004b	89 5d 08	 mov	 DWORD PTR _offset$[ebp], ebx
  0004e	eb 15		 jmp	 SHORT $LN9@gzseek64
$LN11@gzseek64:

; 393  :     else if (state->seek)

  00050	83 7e 58 00	 cmp	 DWORD PTR [esi+88], 0

; 394  :         offset += state->skip;

  00054	8b 7d 0c	 mov	 edi, DWORD PTR _offset$[ebp+4]
  00057	74 09		 je	 SHORT $LN25@gzseek64
  00059	8b 46 50	 mov	 eax, DWORD PTR [esi+80]
  0005c	01 45 08	 add	 DWORD PTR _offset$[ebp], eax
  0005f	13 7e 54	 adc	 edi, DWORD PTR [esi+84]
$LN25@gzseek64:
  00062	8b 5d 08	 mov	 ebx, DWORD PTR _offset$[ebp]
$LN9@gzseek64:

; 395  :     state->seek = 0;

  00065	c7 46 58 00 00
	00 00		 mov	 DWORD PTR [esi+88], 0

; 396  : 
; 397  :     /* if within raw area while reading, just go there */
; 398  :     if (state->mode == GZ_READ && state->how == COPY &&
; 399  :             state->x.pos + offset >= 0) {

  0006c	81 fa 4f 1c 00
	00		 cmp	 edx, 7247		; 00001c4fH
  00072	75 68		 jne	 SHORT $LN8@gzseek64
  00074	83 7e 30 01	 cmp	 DWORD PTR [esi+48], 1
  00078	75 62		 jne	 SHORT $LN8@gzseek64
  0007a	8b c3		 mov	 eax, ebx
  0007c	03 46 08	 add	 eax, DWORD PTR [esi+8]
  0007f	8b cf		 mov	 ecx, edi
  00081	13 4e 0c	 adc	 ecx, DWORD PTR [esi+12]
  00084	89 4d fc	 mov	 DWORD PTR tv405[ebp+4], ecx
  00087	78 53		 js	 SHORT $LN8@gzseek64
  00089	7f 04		 jg	 SHORT $LN21@gzseek64
  0008b	85 c0		 test	 eax, eax
  0008d	72 4d		 jb	 SHORT $LN8@gzseek64
$LN21@gzseek64:

; 400  :         ret = LSEEK(state->fd, offset - state->x.have, SEEK_CUR);

  0008f	8b 56 14	 mov	 edx, DWORD PTR [esi+20]

; 401  :         if (ret == -1)

  00092	33 c0		 xor	 eax, eax
  00094	2b 1e		 sub	 ebx, DWORD PTR [esi]
  00096	6a 01		 push	 1
  00098	8b cf		 mov	 ecx, edi
  0009a	1b c8		 sbb	 ecx, eax
  0009c	51		 push	 ecx
  0009d	53		 push	 ebx
  0009e	52		 push	 edx
  0009f	e8 00 00 00 00	 call	 __lseeki64
  000a4	23 c2		 and	 eax, edx
  000a6	83 c4 10	 add	 esp, 16			; 00000010H
  000a9	83 f8 ff	 cmp	 eax, -1

; 402  :             return -1;

  000ac	74 86		 je	 SHORT $LN28@gzseek64

; 403  :         state->x.have = 0;

  000ae	33 c0		 xor	 eax, eax

; 404  :         state->eof = 0;
; 405  :         state->past = 0;
; 406  :         state->seek = 0;
; 407  :         gz_error(state, Z_OK, NULL);

  000b0	33 db		 xor	 ebx, ebx
  000b2	8b ce		 mov	 ecx, esi
  000b4	89 06		 mov	 DWORD PTR [esi], eax
  000b6	89 46 40	 mov	 DWORD PTR [esi+64], eax
  000b9	89 46 44	 mov	 DWORD PTR [esi+68], eax
  000bc	89 46 58	 mov	 DWORD PTR [esi+88], eax
  000bf	e8 00 00 00 00	 call	 _gz_error

; 408  :         state->strm.avail_in = 0;
; 409  :         state->x.pos += offset;

  000c4	8b 45 08	 mov	 eax, DWORD PTR _offset$[ebp]
  000c7	01 46 08	 add	 DWORD PTR [esi+8], eax

; 410  :         return state->x.pos;

  000ca	8b 46 08	 mov	 eax, DWORD PTR [esi+8]
  000cd	89 5e 68	 mov	 DWORD PTR [esi+104], ebx
  000d0	11 7e 0c	 adc	 DWORD PTR [esi+12], edi
  000d3	8b 56 0c	 mov	 edx, DWORD PTR [esi+12]

; 440  : }

  000d6	5f		 pop	 edi
  000d7	5b		 pop	 ebx
  000d8	8b e5		 mov	 esp, ebp
  000da	5d		 pop	 ebp
  000db	c3		 ret	 0
$LN8@gzseek64:

; 411  :     }
; 412  : 
; 413  :     /* calculate skip amount, rewinding if needed for back seek when reading */
; 414  :     if (offset < 0) {

  000dc	85 ff		 test	 edi, edi
  000de	7f 3c		 jg	 SHORT $LN3@gzseek64
  000e0	7c 04		 jl	 SHORT $LN22@gzseek64
  000e2	85 db		 test	 ebx, ebx
  000e4	73 36		 jae	 SHORT $LN3@gzseek64
$LN22@gzseek64:

; 415  :         if (state->mode != GZ_READ)         /* writing -- can't go backwards */

  000e6	81 fa 4f 1c 00
	00		 cmp	 edx, 7247		; 00001c4fH

; 416  :             return -1;

  000ec	0f 85 42 ff ff
	ff		 jne	 $LN28@gzseek64

; 417  :         offset += state->x.pos;

  000f2	03 5e 08	 add	 ebx, DWORD PTR [esi+8]
  000f5	13 7e 0c	 adc	 edi, DWORD PTR [esi+12]

; 418  :         if (offset < 0)                     /* before start of file! */

  000f8	85 ff		 test	 edi, edi
  000fa	7f 0e		 jg	 SHORT $LN4@gzseek64
  000fc	0f 8c 32 ff ff
	ff		 jl	 $LN28@gzseek64
  00102	85 db		 test	 ebx, ebx

; 419  :             return -1;

  00104	0f 82 2a ff ff
	ff		 jb	 $LN28@gzseek64
$LN4@gzseek64:

; 420  :         if (gzrewind(file) == -1)           /* rewind, then skip to offset */

  0010a	56		 push	 esi
  0010b	e8 00 00 00 00	 call	 _gzrewind
  00110	83 c4 04	 add	 esp, 4
  00113	83 f8 ff	 cmp	 eax, -1

; 421  :             return -1;

  00116	0f 84 18 ff ff
	ff		 je	 $LN28@gzseek64
$LN3@gzseek64:

; 422  :     }
; 423  : 
; 424  :     /* if reading, skip what's in output buffer (one less gzgetc() check) */
; 425  :     if (state->mode == GZ_READ) {

  0011c	81 7e 10 4f 1c
	00 00		 cmp	 DWORD PTR [esi+16], 7247 ; 00001c4fH
  00123	75 27		 jne	 SHORT $LN2@gzseek64

; 426  :         n = GT_OFF(state->x.have) || (z_off64_t)state->x.have > offset ?
; 427  :             (unsigned)offset : state->x.have;

  00125	8b 0e		 mov	 ecx, DWORD PTR [esi]
  00127	33 c0		 xor	 eax, eax
  00129	3b c7		 cmp	 eax, edi
  0012b	7f 0a		 jg	 SHORT $LN18@gzseek64
  0012d	7c 04		 jl	 SHORT $LN24@gzseek64
  0012f	3b cb		 cmp	 ecx, ebx
  00131	77 04		 ja	 SHORT $LN18@gzseek64
$LN24@gzseek64:
  00133	8b c1		 mov	 eax, ecx
  00135	eb 02		 jmp	 SHORT $LN19@gzseek64
$LN18@gzseek64:
  00137	8b c3		 mov	 eax, ebx
$LN19@gzseek64:

; 428  :         state->x.have -= n;
; 429  :         state->x.next += n;

  00139	01 46 04	 add	 DWORD PTR [esi+4], eax
  0013c	2b c8		 sub	 ecx, eax
  0013e	89 0e		 mov	 DWORD PTR [esi], ecx

; 430  :         state->x.pos += n;

  00140	33 c9		 xor	 ecx, ecx
  00142	01 46 08	 add	 DWORD PTR [esi+8], eax
  00145	11 4e 0c	 adc	 DWORD PTR [esi+12], ecx

; 431  :         offset -= n;

  00148	2b d8		 sub	 ebx, eax
  0014a	1b f9		 sbb	 edi, ecx
$LN2@gzseek64:

; 432  :     }
; 433  : 
; 434  :     /* request skip (if not zero) */
; 435  :     if (offset) {

  0014c	8b c3		 mov	 eax, ebx
  0014e	0b c7		 or	 eax, edi
  00150	74 0d		 je	 SHORT $LN1@gzseek64

; 436  :         state->seek = 1;

  00152	c7 46 58 01 00
	00 00		 mov	 DWORD PTR [esi+88], 1

; 437  :         state->skip = offset;

  00159	89 5e 50	 mov	 DWORD PTR [esi+80], ebx
  0015c	89 7e 54	 mov	 DWORD PTR [esi+84], edi
$LN1@gzseek64:

; 438  :     }
; 439  :     return state->x.pos + offset;

  0015f	8b 46 08	 mov	 eax, DWORD PTR [esi+8]
  00162	8b 56 0c	 mov	 edx, DWORD PTR [esi+12]
  00165	03 c3		 add	 eax, ebx
  00167	13 d7		 adc	 edx, edi

; 440  : }

  00169	5f		 pop	 edi
  0016a	5b		 pop	 ebx
  0016b	8b e5		 mov	 esp, ebp
  0016d	5d		 pop	 ebp
  0016e	c3		 ret	 0
_gzseek64 ENDP
_TEXT	ENDS
PUBLIC	_gzopen_w
; Function compile flags: /Ogtp
;	COMDAT _gzopen_w
_TEXT	SEGMENT
_path$ = 8						; size = 4
_mode$ = 12						; size = 4
_gzopen_w PROC						; COMDAT

; 310  : {

  00000	55		 push	 ebp
  00001	8b ec		 mov	 ebp, esp

; 311  :     return gz_open(path, -2, mode);

  00003	8b 45 08	 mov	 eax, DWORD PTR _path$[ebp]
  00006	6a fe		 push	 -2			; fffffffeH
  00008	50		 push	 eax
  00009	8b 45 0c	 mov	 eax, DWORD PTR _mode$[ebp]
  0000c	e8 00 00 00 00	 call	 _gz_open
  00011	83 c4 08	 add	 esp, 8

; 312  : }

  00014	5d		 pop	 ebp
  00015	c3		 ret	 0
_gzopen_w ENDP
_TEXT	ENDS
PUBLIC	_gzdopen
; Function compile flags: /Ogtp
;	COMDAT _gzdopen
_TEXT	SEGMENT
_fd$ = 8						; size = 4
_mode$ = 12						; size = 4
_gzdopen PROC						; COMDAT

; 289  : {

  00000	55		 push	 ebp
  00001	8b ec		 mov	 ebp, esp
  00003	56		 push	 esi
  00004	57		 push	 edi

; 290  :     char *path;         /* identifier for error messages */
; 291  :     gzFile gz;
; 292  : 
; 293  :     if (fd == -1 || (path = (char *)malloc(7 + 3 * sizeof(int))) == NULL)

  00005	8b 7d 08	 mov	 edi, DWORD PTR _fd$[ebp]
  00008	83 ff ff	 cmp	 edi, -1
  0000b	74 39		 je	 SHORT $LN1@gzdopen
  0000d	6a 13		 push	 19			; 00000013H
  0000f	e8 00 00 00 00	 call	 _malloc
  00014	8b f0		 mov	 esi, eax
  00016	83 c4 04	 add	 esp, 4
  00019	85 f6		 test	 esi, esi
  0001b	74 29		 je	 SHORT $LN1@gzdopen

; 295  : #if !defined(NO_snprintf) && !defined(NO_vsnprintf)
; 296  :     (void)snprintf(path, 7 + 3 * sizeof(int), "<fd:%d>", fd);

  0001d	57		 push	 edi
  0001e	68 00 00 00 00	 push	 OFFSET ??_C@_07EBNKNFJN@?$DMfd?3?$CFd?$DO?$AA@
  00023	6a 13		 push	 19			; 00000013H
  00025	56		 push	 esi
  00026	e8 00 00 00 00	 call	 __snprintf

; 297  : #else
; 298  :     sprintf(path, "<fd:%d>", fd);   /* for debugging */
; 299  : #endif
; 300  :     gz = gz_open(path, fd, mode);

  0002b	8b 45 0c	 mov	 eax, DWORD PTR _mode$[ebp]
  0002e	57		 push	 edi
  0002f	56		 push	 esi
  00030	e8 00 00 00 00	 call	 _gz_open

; 301  :     free(path);

  00035	56		 push	 esi
  00036	8b f8		 mov	 edi, eax
  00038	e8 00 00 00 00	 call	 _free
  0003d	83 c4 1c	 add	 esp, 28			; 0000001cH

; 302  :     return gz;

  00040	8b c7		 mov	 eax, edi
  00042	5f		 pop	 edi
  00043	5e		 pop	 esi

; 303  : }

  00044	5d		 pop	 ebp
  00045	c3		 ret	 0
$LN1@gzdopen:
  00046	5f		 pop	 edi

; 294  :         return NULL;

  00047	33 c0		 xor	 eax, eax
  00049	5e		 pop	 esi

; 303  : }

  0004a	5d		 pop	 ebp
  0004b	c3		 ret	 0
_gzdopen ENDP
_TEXT	ENDS
PUBLIC	_gzopen
; Function compile flags: /Ogtp
;	COMDAT _gzopen
_TEXT	SEGMENT
_path$ = 8						; size = 4
_mode$ = 12						; size = 4
_gzopen	PROC						; COMDAT

; 273  : {

  00000	55		 push	 ebp
  00001	8b ec		 mov	 ebp, esp

; 274  :     return gz_open(path, -1, mode);

  00003	8b 45 08	 mov	 eax, DWORD PTR _path$[ebp]
  00006	6a ff		 push	 -1
  00008	50		 push	 eax
  00009	8b 45 0c	 mov	 eax, DWORD PTR _mode$[ebp]
  0000c	e8 00 00 00 00	 call	 _gz_open
  00011	83 c4 08	 add	 esp, 8

; 275  : }

  00014	5d		 pop	 ebp
  00015	c3		 ret	 0
_gzopen	ENDP
PUBLIC	_gzseek
; Function compile flags: /Ogtp
;	COMDAT _gzseek
_TEXT	SEGMENT
_file$ = 8						; size = 4
_offset$ = 12						; size = 4
_whence$ = 16						; size = 4
_gzseek	PROC						; COMDAT

; 447  : {

  00000	55		 push	 ebp
  00001	8b ec		 mov	 ebp, esp
  00003	83 e4 f8	 and	 esp, -8			; fffffff8H
  00006	51		 push	 ecx

; 448  :     z_off64_t ret;
; 449  : 
; 450  :     ret = gzseek64(file, (z_off64_t)offset, whence);

  00007	8b 45 0c	 mov	 eax, DWORD PTR _offset$[ebp]
  0000a	8b 4d 10	 mov	 ecx, DWORD PTR _whence$[ebp]
  0000d	99		 cdq
  0000e	56		 push	 esi
  0000f	8b 75 08	 mov	 esi, DWORD PTR _file$[ebp]
  00012	52		 push	 edx
  00013	50		 push	 eax
  00014	e8 00 00 00 00	 call	 _gzseek64
  00019	8b c8		 mov	 ecx, eax
  0001b	8b f2		 mov	 esi, edx

; 451  :     return ret == (z_off_t)ret ? (z_off_t)ret : -1;

  0001d	99		 cdq
  0001e	83 c4 08	 add	 esp, 8
  00021	3b c8		 cmp	 ecx, eax
  00023	75 0b		 jne	 SHORT $LN3@gzseek
  00025	3b f2		 cmp	 esi, edx
  00027	75 07		 jne	 SHORT $LN3@gzseek
  00029	8b c1		 mov	 eax, ecx

; 452  : }

  0002b	5e		 pop	 esi
  0002c	8b e5		 mov	 esp, ebp
  0002e	5d		 pop	 ebp
  0002f	c3		 ret	 0
$LN3@gzseek:

; 451  :     return ret == (z_off_t)ret ? (z_off_t)ret : -1;

  00030	83 c8 ff	 or	 eax, -1

; 452  : }

  00033	5e		 pop	 esi
  00034	8b e5		 mov	 esp, ebp
  00036	5d		 pop	 ebp
  00037	c3		 ret	 0
_gzseek	ENDP
END
